; Function Attrs: mustprogress uwtable
define dso_local void @_ZN23btHashedSimplePairCache14removeAllPairsEv(ptr nocapture noundef nonnull align 8 dereferenceable(104) %this) local_unnamed_addr #0 align 2 {
entry:
  %m_data.i.i = getelementptr inbounds i8, ptr %this, i64 24
  %0 = load ptr, ptr %m_data.i.i, align 8
  %tobool.not.i.i = icmp eq ptr %0, null
  br i1 %tobool.not.i.i, label %_ZN20btAlignedObjectArrayI12btSimplePairE5clearEv.exit, label %if.then.i.i

if.then.i.i:                                      ; preds = %entry
  %m_ownsMemory.i.i = getelementptr inbounds i8, ptr %this, i64 32
  %1 = load i8, ptr %m_ownsMemory.i.i, align 8
  %2 = and i8 %1, 1
  %tobool2.not.i.i = icmp eq i8 %2, 0
  br i1 %tobool2.not.i.i, label %_ZN20btAlignedObjectArrayI12btSimplePairE5clearEv.exit, label %if.then3.i.i

if.then3.i.i:                                     ; preds = %if.then.i.i
  tail call void @_Z21btAlignedFreeInternalPv(ptr noundef nonnull %0)
  br label %_ZN20btAlignedObjectArrayI12btSimplePairE5clearEv.exit

_ZN20btAlignedObjectArrayI12btSimplePairE5clearEv.exit: ; preds = %entry, %if.then.i.i, %if.then3.i.i
  %m_size.i.i = getelementptr inbounds i8, ptr %this, i64 12
  %m_ownsMemory.i1.i = getelementptr inbounds i8, ptr %this, i64 32
  store i8 1, ptr %m_ownsMemory.i1.i, align 8
  store ptr null, ptr %m_data.i.i, align 8
  store i32 0, ptr %m_size.i.i, align 4
  %m_capacity.i.i = getelementptr inbounds i8, ptr %this, i64 16
  store i32 0, ptr %m_capacity.i.i, align 8
  %m_data.i.i1 = getelementptr inbounds i8, ptr %this, i64 56
  %3 = load ptr, ptr %m_data.i.i1, align 8
  %tobool.not.i.i2 = icmp eq ptr %3, null
  br i1 %tobool.not.i.i2, label %_ZN20btAlignedObjectArrayIiE5clearEv.exit, label %if.then.i.i3

if.then.i.i3:                                     ; preds = %_ZN20btAlignedObjectArrayI12btSimplePairE5clearEv.exit
  %m_ownsMemory.i.i4 = getelementptr inbounds i8, ptr %this, i64 64
  %4 = load i8, ptr %m_ownsMemory.i.i4, align 8
  %5 = and i8 %4, 1
  %tobool2.not.i.i5 = icmp eq i8 %5, 0
  br i1 %tobool2.not.i.i5, label %_ZN20btAlignedObjectArrayIiE5clearEv.exit, label %if.then3.i.i6

if.then3.i.i6:                                    ; preds = %if.then.i.i3
  tail call void @_Z21btAlignedFreeInternalPv(ptr noundef nonnull %3)
  br label %_ZN20btAlignedObjectArrayIiE5clearEv.exit

_ZN20btAlignedObjectArrayIiE5clearEv.exit:        ; preds = %_ZN20btAlignedObjectArrayI12btSimplePairE5clearEv.exit, %if.then.i.i3, %if.then3.i.i6
  %m_size.i.i7 = getelementptr inbounds i8, ptr %this, i64 44
  %m_ownsMemory.i1.i8 = getelementptr inbounds i8, ptr %this, i64 64
  store i8 1, ptr %m_ownsMemory.i1.i8, align 8
  store ptr null, ptr %m_data.i.i1, align 8
  store i32 0, ptr %m_size.i.i7, align 4
  %m_capacity.i.i9 = getelementptr inbounds i8, ptr %this, i64 48
  store i32 0, ptr %m_capacity.i.i9, align 8
  %m_data.i.i10 = getelementptr inbounds i8, ptr %this, i64 88
  %6 = load ptr, ptr %m_data.i.i10, align 8
  %tobool.not.i.i11 = icmp eq ptr %6, null
  br i1 %tobool.not.i.i11, label %_ZN20btAlignedObjectArrayIiE5clearEv.exit19, label %if.then.i.i12

if.then.i.i12:                                    ; preds = %_ZN20btAlignedObjectArrayIiE5clearEv.exit
  %m_ownsMemory.i.i13 = getelementptr inbounds i8, ptr %this, i64 96
  %7 = load i8, ptr %m_ownsMemory.i.i13, align 8
  %8 = and i8 %7, 1
  %tobool2.not.i.i14 = icmp eq i8 %8, 0
  br i1 %tobool2.not.i.i14, label %_ZN20btAlignedObjectArrayIiE5clearEv.exit19, label %if.then3.i.i15

if.then3.i.i15:                                   ; preds = %if.then.i.i12
  tail call void @_Z21btAlignedFreeInternalPv(ptr noundef nonnull %6)
  br label %_ZN20btAlignedObjectArrayIiE5clearEv.exit19

_ZN20btAlignedObjectArrayIiE5clearEv.exit19:      ; preds = %_ZN20btAlignedObjectArrayIiE5clearEv.exit, %if.then.i.i12, %if.then3.i.i15
  %m_size.i.i16 = getelementptr inbounds i8, ptr %this, i64 76
  %m_ownsMemory.i1.i17 = getelementptr inbounds i8, ptr %this, i64 96
  store i8 1, ptr %m_ownsMemory.i1.i17, align 8
  store ptr null, ptr %m_data.i.i10, align 8
  store i32 0, ptr %m_size.i.i16, align 4
  %m_capacity.i.i18 = getelementptr inbounds i8, ptr %this, i64 80
  store i32 0, ptr %m_capacity.i.i18, align 8
  %9 = load i32, ptr %m_capacity.i.i, align 8
  %cmp.i = icmp slt i32 %9, 2
  br i1 %cmp.i, label %if.then.i, label %_ZN20btAlignedObjectArrayI12btSimplePairE7reserveEi.exit

if.then.i:                                        ; preds = %_ZN20btAlignedObjectArrayIiE5clearEv.exit19
  %call.i.i.i = tail call noundef ptr @_Z22btAlignedAllocInternalmi(i64 noundef 32, i32 noundef 16)
  %10 = load i32, ptr %m_size.i.i, align 4
  %cmp4.i.i = icmp sgt i32 %10, 0
  br i1 %cmp4.i.i, label %for.body.lr.ph.i.i, label %_ZNK20btAlignedObjectArrayI12btSimplePairE4copyEiiPS0_.exit.i

for.body.lr.ph.i.i:                               ; preds = %if.then.i
  %wide.trip.count.i.i = zext nneg i32 %10 to i64
  br label %for.body.i.i

for.body.i.i:                                     ; preds = %for.body.i.i, %for.body.lr.ph.i.i
  %indvars.iv.i.i = phi i64 [ 0, %for.body.lr.ph.i.i ], [ %indvars.iv.next.i.i, %for.body.i.i ]
  %arrayidx.i.i = getelementptr inbounds %struct.btSimplePair, ptr %call.i.i.i, i64 %indvars.iv.i.i
  %11 = load ptr, ptr %m_data.i.i, align 8
  %arrayidx3.i.i = getelementptr inbounds %struct.btSimplePair, ptr %11, i64 %indvars.iv.i.i
  tail call void @llvm.memcpy.p0.p0.i64(ptr noundef nonnull align 8 dereferenceable(16) %arrayidx.i.i, ptr noundef nonnull align 8 dereferenceable(16) %arrayidx3.i.i, i64 16, i1 false)
  %indvars.iv.next.i.i = add nuw nsw i64 %indvars.iv.i.i, 1
  %exitcond.not.i.i = icmp eq i64 %indvars.iv.next.i.i, %wide.trip.count.i.i
  br i1 %exitcond.not.i.i, label %_ZNK20btAlignedObjectArrayI12btSimplePairE4copyEiiPS0_.exit.i, label %for.body.i.i, !llvm.loop !5

_ZNK20btAlignedObjectArrayI12btSimplePairE4copyEiiPS0_.exit.i: ; preds = %for.body.i.i, %if.then.i
  %12 = load ptr, ptr %m_data.i.i, align 8
  %tobool.not.i6.i = icmp eq ptr %12, null
  br i1 %tobool.not.i6.i, label %_ZN20btAlignedObjectArrayI12btSimplePairE10deallocateEv.exit.i, label %if.then.i7.i

if.then.i7.i:                                     ; preds = %_ZNK20btAlignedObjectArrayI12btSimplePairE4copyEiiPS0_.exit.i
  %13 = load i8, ptr %m_ownsMemory.i1.i, align 8
  %14 = and i8 %13, 1
  %tobool2.not.i.i24 = icmp eq i8 %14, 0
  br i1 %tobool2.not.i.i24, label %_ZN20btAlignedObjectArrayI12btSimplePairE10deallocateEv.exit.i, label %if.then3.i.i25

if.then3.i.i25:                                   ; preds = %if.then.i7.i
  tail call void @_Z21btAlignedFreeInternalPv(ptr noundef nonnull %12)
  br label %_ZN20btAlignedObjectArrayI12btSimplePairE10deallocateEv.exit.i

_ZN20btAlignedObjectArrayI12btSimplePairE10deallocateEv.exit.i: ; preds = %if.then3.i.i25, %if.then.i7.i, %_ZNK20btAlignedObjectArrayI12btSimplePairE4copyEiiPS0_.exit.i
  store i8 1, ptr %m_ownsMemory.i1.i, align 8
  store ptr %call.i.i.i, ptr %m_data.i.i, align 8
  store i32 2, ptr %m_capacity.i.i, align 8
  br label %_ZN20btAlignedObjectArrayI12btSimplePairE7reserveEi.exit

_ZN20btAlignedObjectArrayI12btSimplePairE7reserveEi.exit: ; preds = %_ZN20btAlignedObjectArrayIiE5clearEv.exit19, %_ZN20btAlignedObjectArrayI12btSimplePairE10deallocateEv.exit.i
  tail call void @_ZN23btHashedSimplePairCache10growTablesEv(ptr noundef nonnull align 8 dereferenceable(104) %this)
  ret void
}